target datalayout = "e-m:e-p270:32:32-p271:32:32-p272:64:64-i64:64-i128:128-f80:128-n8:16:32:64-S128"
target triple = "x86_64-pc-linux-gnu"

; Function Attrs: nounwind uwtable
define dso_local ptr @brin_copy_tuple(ptr noundef %0, i64 noundef %1, ptr noundef %2, ptr noundef %3) #0 {
  %5 = alloca ptr, align 8
  %6 = alloca i64, align 8
  %7 = alloca ptr, align 8
  %8 = alloca ptr, align 8
  store ptr %0, ptr %5, align 8
  store i64 %1, ptr %6, align 8
  store ptr %2, ptr %7, align 8
  store ptr %3, ptr %8, align 8
  %9 = load ptr, ptr %8, align 8
  %10 = icmp ne ptr %9, null
  br i1 %10, label %11, label %15

11:                                               ; preds = %4
  %12 = load ptr, ptr %8, align 8
  %13 = load i64, ptr %12, align 8
  %14 = icmp eq i64 %13, 0
  br i1 %14, label %15, label %18

15:                                               ; preds = %11, %4
  %16 = load i64, ptr %6, align 8
  %17 = call ptr @palloc(i64 noundef %16)
  store ptr %17, ptr %7, align 8
  br label %30

18:                                               ; preds = %11
  %19 = load i64, ptr %6, align 8
  %20 = load ptr, ptr %8, align 8
  %21 = load i64, ptr %20, align 8
  %22 = icmp ugt i64 %19, %21
  br i1 %22, label %23, label %29

23:                                               ; preds = %18
  %24 = load ptr, ptr %7, align 8
  %25 = load i64, ptr %6, align 8
  %26 = call ptr @repalloc(ptr noundef %24, i64 noundef %25)
  store ptr %26, ptr %7, align 8
  %27 = load i64, ptr %6, align 8
  %28 = load ptr, ptr %8, align 8
  store i64 %27, ptr %28, align 8
  br label %29

29:                                               ; preds = %23, %18
  br label %30

30:                                               ; preds = %29, %15
  %31 = load ptr, ptr %7, align 8
  %32 = load ptr, ptr %5, align 8
  %33 = load i64, ptr %6, align 8
  call void @llvm.memcpy.p0.p0.i64(ptr align 4 %31, ptr align 4 %32, i64 %33, i1 false)
  %34 = load ptr, ptr %7, align 8
  ret ptr %34
}