; Function Attrs: nounwind uwtable
define dso_local ptr @brin_copy_tuple(ptr noundef readonly captures(none) %0, i64 noundef %1, ptr noundef %2, ptr noundef captures(address_is_null) %3) local_unnamed_addr #0 {
  %.not = icmp eq ptr %3, null
  br i1 %.not, label %8, label %5

5:                                                ; preds = %4
  %6 = load i64, ptr %3, align 8
  %7 = icmp eq i64 %6, 0
  br i1 %7, label %8, label %10

8:                                                ; preds = %5, %4
  %9 = tail call ptr @palloc(i64 noundef %1) #9
  br label %14

10:                                               ; preds = %5
  %11 = icmp ugt i64 %1, %6
  br i1 %11, label %12, label %14

12:                                               ; preds = %10
  %13 = tail call ptr @repalloc(ptr noundef %2, i64 noundef %1) #9
  store i64 %1, ptr %3, align 8
  br label %14

14:                                               ; preds = %10, %12, %8
  %.0 = phi ptr [ %9, %8 ], [ %13, %12 ], [ %2, %10 ]
  tail call void @llvm.memcpy.p0.p0.i64(ptr align 4 %.0, ptr align 4 %0, i64 %1, i1 false)
  ret ptr %.0
}